target datalayout = "e-m:e-p270:32:32-p271:32:32-p272:64:64-i64:64-i128:128-f80:128-n8:16:32:64-S128"
target triple = "x86_64-pc-linux-gnu"

%struct.lua_State = type { %struct.GCRef, i8, i8, i8, i8, %struct.MRef, %struct.GCRef, ptr, ptr, %struct.MRef, %struct.MRef, %struct.GCRef, %struct.GCRef, ptr, i32 }
%struct.MRef = type { i64 }
%struct.GCRef = type { i64 }
%union.TValue = type { i64 }
%struct.GCudata = type { %struct.GCRef, i8, i8, i8, i8, %struct.GCRef, i32, %struct.GCRef, i32 }
%struct.IOFileUD = type { ptr, i32 }

@.str = private unnamed_addr constant [6 x i8] c"FILE*\00", align 1
@.str.9 = private unnamed_addr constant [13 x i8] c"\03set\03cur\03end\00", align 1

; Function Attrs: nounwind uwtable
define internal ptr @io_tofilep(ptr noundef %0) #0 {
  %2 = alloca ptr, align 8
  store ptr %0, ptr %2, align 8, !tbaa !4
  %3 = load ptr, ptr %2, align 8, !tbaa !4
  %4 = getelementptr inbounds nuw %struct.lua_State, ptr %3, i32 0, i32 7
  %5 = load ptr, ptr %4, align 8, !tbaa !35
  %6 = load ptr, ptr %2, align 8, !tbaa !4
  %7 = getelementptr inbounds nuw %struct.lua_State, ptr %6, i32 0, i32 8
  %8 = load ptr, ptr %7, align 8, !tbaa !9
  %9 = icmp ult ptr %5, %8
  br i1 %9, label %10, label %30

10:                                               ; preds = %1
  %11 = load ptr, ptr %2, align 8, !tbaa !4
  %12 = getelementptr inbounds nuw %struct.lua_State, ptr %11, i32 0, i32 7
  %13 = load ptr, ptr %12, align 8, !tbaa !35
  %14 = load i64, ptr %13, align 8, !tbaa !22
  %15 = ashr i64 %14, 47
  %16 = trunc i64 %15 to i32
  %17 = icmp eq i32 %16, -13
  br i1 %17, label %18, label %30

18:                                               ; preds = %10
  %19 = load ptr, ptr %2, align 8, !tbaa !4
  %20 = getelementptr inbounds nuw %struct.lua_State, ptr %19, i32 0, i32 7
  %21 = load ptr, ptr %20, align 8, !tbaa !35
  %22 = getelementptr inbounds nuw %struct.GCRef, ptr %21, i32 0, i32 0
  %23 = load i64, ptr %22, align 8, !tbaa !22
  %24 = and i64 %23, 140737488355327
  %25 = inttoptr i64 %24 to ptr
  %26 = getelementptr inbounds nuw %struct.GCudata, ptr %25, i32 0, i32 3
  %27 = load i8, ptr %26, align 2, !tbaa !22
  %28 = zext i8 %27 to i32
  %29 = icmp eq i32 %28, 1
  br i1 %29, label %32, label %30

30:                                               ; preds = %18, %10, %1
  %31 = load ptr, ptr %2, align 8, !tbaa !4
  call void @lj_err_argtype(ptr noundef %31, i32 noundef 1, ptr noundef @.str) #11
  unreachable

32:                                               ; preds = %18
  %33 = load ptr, ptr %2, align 8, !tbaa !4
  %34 = getelementptr inbounds nuw %struct.lua_State, ptr %33, i32 0, i32 7
  %35 = load ptr, ptr %34, align 8, !tbaa !35
  %36 = getelementptr inbounds nuw %struct.GCRef, ptr %35, i32 0, i32 0
  %37 = load i64, ptr %36, align 8, !tbaa !22
  %38 = and i64 %37, 140737488355327
  %39 = inttoptr i64 %38 to ptr
  %40 = getelementptr inbounds %struct.GCudata, ptr %39, i64 1
  ret ptr %40
}

; Function Attrs: alwaysinline nounwind uwtable
define internal void @setint64V(ptr noundef %0, i64 noundef %1) #2 {
  %3 = alloca ptr, align 8
  %4 = alloca i64, align 8
  store ptr %0, ptr %3, align 8, !tbaa !20
  store i64 %1, ptr %4, align 8, !tbaa !37
  %5 = load i64, ptr %4, align 8, !tbaa !37
  %6 = sitofp i64 %5 to double
  %7 = load ptr, ptr %3, align 8, !tbaa !20
  store double %6, ptr %7, align 8, !tbaa !22
  ret void
}

; Function Attrs: nounwind uwtable
define internal ptr @io_tofile(ptr noundef %0) #0 {
  %2 = alloca ptr, align 8
  %3 = alloca ptr, align 8
  store ptr %0, ptr %2, align 8, !tbaa !4
  call void @llvm.lifetime.start.p0(i64 8, ptr %3) #10
  %4 = load ptr, ptr %2, align 8, !tbaa !4
  %5 = call ptr @io_tofilep(ptr noundef %4)
  store ptr %5, ptr %3, align 8, !tbaa !25
  %6 = load ptr, ptr %3, align 8, !tbaa !25
  %7 = getelementptr inbounds nuw %struct.IOFileUD, ptr %6, i32 0, i32 0
  %8 = load ptr, ptr %7, align 8, !tbaa !32
  %9 = icmp eq ptr %8, null
  br i1 %9, label %10, label %12

10:                                               ; preds = %1
  %11 = load ptr, ptr %2, align 8, !tbaa !4
  call void @lj_err_caller(ptr noundef %11, i32 noundef 1531) #11
  unreachable

12:                                               ; preds = %1
  %13 = load ptr, ptr %3, align 8, !tbaa !25
  call void @llvm.lifetime.end.p0(i64 8, ptr %3) #10
  ret ptr %13
}

; Function Attrs: nounwind uwtable
define internal i32 @lj_cf_io_method_seek(ptr noundef %0) #0 {
  %2 = alloca i32, align 4
  %3 = alloca ptr, align 8
  %4 = alloca ptr, align 8
  %5 = alloca i32, align 4
  %6 = alloca i64, align 8
  %7 = alloca ptr, align 8
  %8 = alloca i32, align 4
  %9 = alloca i32, align 4
  store ptr %0, ptr %3, align 8, !tbaa !4
  call void @llvm.lifetime.start.p0(i64 8, ptr %4) #10
  %10 = load ptr, ptr %3, align 8, !tbaa !4
  %11 = call ptr @io_tofile(ptr noundef %10)
  %12 = getelementptr inbounds nuw %struct.IOFileUD, ptr %11, i32 0, i32 0
  %13 = load ptr, ptr %12, align 8, !tbaa !32
  store ptr %13, ptr %4, align 8, !tbaa !16
  call void @llvm.lifetime.start.p0(i64 4, ptr %5) #10
  %14 = load ptr, ptr %3, align 8, !tbaa !4
  %15 = call i32 @lj_lib_checkopt(ptr noundef %14, i32 noundef 2, i32 noundef 1, ptr noundef @.str.9)
  store i32 %15, ptr %5, align 4, !tbaa !36
  call void @llvm.lifetime.start.p0(i64 8, ptr %6) #10
  store i64 0, ptr %6, align 8, !tbaa !37
  call void @llvm.lifetime.start.p0(i64 8, ptr %7) #10
  call void @llvm.lifetime.start.p0(i64 4, ptr %8) #10
  %16 = load i32, ptr %5, align 4, !tbaa !36
  %17 = icmp eq i32 %16, 0
  br i1 %17, label %18, label %19

18:                                               ; preds = %1
  store i32 0, ptr %5, align 4, !tbaa !36
  br label %29

19:                                               ; preds = %1
  %20 = load i32, ptr %5, align 4, !tbaa !36
  %21 = icmp eq i32 %20, 1
  br i1 %21, label %22, label %23

22:                                               ; preds = %19
  store i32 1, ptr %5, align 4, !tbaa !36
  br label %28

23:                                               ; preds = %19
  %24 = load i32, ptr %5, align 4, !tbaa !36
  %25 = icmp eq i32 %24, 2
  br i1 %25, label %26, label %27

26:                                               ; preds = %23
  store i32 2, ptr %5, align 4, !tbaa !36
  br label %27

27:                                               ; preds = %26, %23
  br label %28

28:                                               ; preds = %27, %22
  br label %29

29:                                               ; preds = %28, %18
  %30 = load ptr, ptr %3, align 8, !tbaa !4
  %31 = getelementptr inbounds nuw %struct.lua_State, ptr %30, i32 0, i32 7
  %32 = load ptr, ptr %31, align 8, !tbaa !35
  %33 = getelementptr inbounds %union.TValue, ptr %32, i64 2
  store ptr %33, ptr %7, align 8, !tbaa !20
  %34 = load ptr, ptr %7, align 8, !tbaa !20
  %35 = load ptr, ptr %3, align 8, !tbaa !4
  %36 = getelementptr inbounds nuw %struct.lua_State, ptr %35, i32 0, i32 8
  %37 = load ptr, ptr %36, align 8, !tbaa !9
  %38 = icmp ult ptr %34, %37
  br i1 %38, label %39, label %57

39:                                               ; preds = %29
  %40 = load ptr, ptr %7, align 8, !tbaa !20
  %41 = load i64, ptr %40, align 8, !tbaa !22
  %42 = ashr i64 %41, 47
  %43 = trunc i64 %42 to i32
  %44 = icmp ult i32 %43, -14
  br i1 %44, label %45, label %49

45:                                               ; preds = %39
  %46 = load ptr, ptr %7, align 8, !tbaa !20
  %47 = load double, ptr %46, align 8, !tbaa !22
  %48 = fptosi double %47 to i64
  store i64 %48, ptr %6, align 8, !tbaa !37
  br label %56

49:                                               ; preds = %39
  %50 = load ptr, ptr %7, align 8, !tbaa !20
  %51 = load i64, ptr %50, align 8, !tbaa !22
  %52 = icmp eq i64 %51, -1
  br i1 %52, label %55, label %53

53:                                               ; preds = %49
  %54 = load ptr, ptr %3, align 8, !tbaa !4
  call void @lj_err_argt(ptr noundef %54, i32 noundef 3, i32 noundef 3) #11
  unreachable

55:                                               ; preds = %49
  br label %56

56:                                               ; preds = %55, %45
  br label %57

57:                                               ; preds = %56, %29
  %58 = load ptr, ptr %4, align 8, !tbaa !16
  %59 = load i64, ptr %6, align 8, !tbaa !37
  %60 = load i32, ptr %5, align 4, !tbaa !36
  %61 = call i32 @fseeko64(ptr noundef %58, i64 noundef %59, i32 noundef %60)
  store i32 %61, ptr %8, align 4, !tbaa !36
  %62 = load i32, ptr %8, align 4, !tbaa !36
  %63 = icmp ne i32 %62, 0
  br i1 %63, label %64, label %67

64:                                               ; preds = %57
  %65 = load ptr, ptr %3, align 8, !tbaa !4
  %66 = call i32 @luaL_fileresult(ptr noundef %65, i32 noundef 0, ptr noundef null)
  store i32 %66, ptr %2, align 4
  store i32 1, ptr %9, align 4
  br label %75

67:                                               ; preds = %57
  %68 = load ptr, ptr %4, align 8, !tbaa !16
  %69 = call i64 @ftello64(ptr noundef %68)
  store i64 %69, ptr %6, align 8, !tbaa !37
  %70 = load ptr, ptr %3, align 8, !tbaa !4
  %71 = getelementptr inbounds nuw %struct.lua_State, ptr %70, i32 0, i32 8
  %72 = load ptr, ptr %71, align 8, !tbaa !9
  %73 = getelementptr inbounds %union.TValue, ptr %72, i64 -1
  %74 = load i64, ptr %6, align 8, !tbaa !37
  call void @setint64V(ptr noundef %73, i64 noundef %74)
  store i32 1, ptr %2, align 4
  store i32 1, ptr %9, align 4
  br label %75

75:                                               ; preds = %67, %64
  call void @llvm.lifetime.end.p0(i64 4, ptr %8) #10
  call void @llvm.lifetime.end.p0(i64 8, ptr %7) #10
  call void @llvm.lifetime.end.p0(i64 8, ptr %6) #10
  call void @llvm.lifetime.end.p0(i64 4, ptr %5) #10
  call void @llvm.lifetime.end.p0(i64 8, ptr %4) #10
  %76 = load i32, ptr %2, align 4
  ret i32 %76
}