; Function Attrs: nounwind uwtable
define internal i32 @lj_cf_io_method_seek(ptr noundef %0) #0 {
  %2 = getelementptr inbounds nuw i8, ptr %0, i64 32
  %3 = load ptr, ptr %2, align 8, !tbaa !25
  %4 = getelementptr inbounds nuw i8, ptr %0, i64 40
  %5 = load ptr, ptr %4, align 8, !tbaa !4
  %6 = icmp ult ptr %3, %5
  br i1 %6, label %7, label %16

7:                                                ; preds = %1
  %8 = load i64, ptr %3, align 8, !tbaa !14
  %.mask.i.i = and i64 %8, -140737488355328
  %9 = icmp eq i64 %.mask.i.i, -1829587348619264
  br i1 %9, label %10, label %16

10:                                               ; preds = %7
  %11 = and i64 %8, 140737488355327
  %12 = inttoptr i64 %11 to ptr
  %13 = getelementptr inbounds nuw i8, ptr %12, i64 10
  %14 = load i8, ptr %13, align 2, !tbaa !14
  %15 = icmp eq i8 %14, 1
  br i1 %15, label %io_tofilep.exit.i, label %16

16:                                               ; preds = %10, %7, %1
  tail call void @lj_err_argtype(ptr noundef nonnull %0, i32 noundef 1, ptr noundef nonnull @.str) #11
  unreachable

io_tofilep.exit.i:                                ; preds = %10
  %17 = getelementptr inbounds nuw i8, ptr %12, i64 48
  %18 = load ptr, ptr %17, align 8, !tbaa !20
  %19 = icmp eq ptr %18, null
  br i1 %19, label %20, label %io_tofile.exit

20:                                               ; preds = %io_tofilep.exit.i
  tail call void @lj_err_caller(ptr noundef nonnull %0, i32 noundef 1531) #11
  unreachable

io_tofile.exit:                                   ; preds = %io_tofilep.exit.i
  %21 = tail call i32 @lj_lib_checkopt(ptr noundef nonnull %0, i32 noundef 2, i32 noundef 1, ptr noundef nonnull @.str.9) #10
  %22 = load ptr, ptr %2, align 8, !tbaa !25
  %23 = getelementptr inbounds nuw i8, ptr %22, i64 16
  %24 = load ptr, ptr %4, align 8, !tbaa !4
  %25 = icmp ult ptr %23, %24
  br i1 %25, label %26, label %35

26:                                               ; preds = %io_tofile.exit
  %27 = load i64, ptr %23, align 8
  %28 = icmp ult i64 %27, -1970324836974592
  br i1 %28, label %29, label %32

29:                                               ; preds = %26
  %30 = bitcast i64 %27 to double
  %31 = fptosi double %30 to i64
  br label %35

32:                                               ; preds = %26
  %33 = icmp eq i64 %27, -1
  br i1 %33, label %35, label %34

34:                                               ; preds = %32
  tail call void @lj_err_argt(ptr noundef nonnull %0, i32 noundef 3, i32 noundef 3) #11
  unreachable

35:                                               ; preds = %29, %32, %io_tofile.exit
  %.021 = phi i64 [ %31, %29 ], [ 0, %32 ], [ 0, %io_tofile.exit ]
  %36 = tail call i32 @fseeko64(ptr noundef nonnull %18, i64 noundef %.021, i32 noundef %21)
  %.not = icmp eq i32 %36, 0
  br i1 %.not, label %39, label %37

37:                                               ; preds = %35
  %38 = tail call i32 @luaL_fileresult(ptr noundef nonnull %0, i32 noundef 0, ptr noundef null) #10
  br label %44

39:                                               ; preds = %35
  %40 = tail call i64 @ftello64(ptr noundef nonnull %18)
  %41 = load ptr, ptr %4, align 8, !tbaa !4
  %42 = getelementptr inbounds i8, ptr %41, i64 -8
  %43 = sitofp i64 %40 to double
  store double %43, ptr %42, align 8, !tbaa !14
  br label %44

44:                                               ; preds = %39, %37
  %.0 = phi i32 [ %38, %37 ], [ 1, %39 ]
  ret i32 %.0
}